target datalayout = "e-m:e-p270:32:32-p271:32:32-p272:64:64-i64:64-i128:128-f80:128-n8:16:32:64-S128"
target triple = "x86_64-pc-linux-gnu"

%"struct.nanogui::Array.2" = type { [2 x i32] }
%"class.std::__1::basic_string" = type { %"class.std::__1::__compressed_pair.4" }
%"class.std::__1::__compressed_pair.4" = type { %"struct.std::__1::__compressed_pair_elem.5" }
%"struct.std::__1::__compressed_pair_elem.5" = type { %"struct.std::__1::basic_string<char>::__rep" }
%"struct.std::__1::basic_string<char>::__rep" = type { %union.anon }
%union.anon = type { %"struct.std::__1::basic_string<char>::__long" }
%"struct.std::__1::basic_string<char>::__long" = type { %struct.anon.6, i64, ptr }
%struct.anon.6 = type { i64 }
%"struct.nanogui::Matrix" = type { [3 x [3 x float]] }
%"struct.tev::Box" = type { %"struct.nanogui::Array.2", %"struct.nanogui::Array.2" }
%"struct.std::__1::__compressed_pair_elem.17" = type { %"class.std::__1::__tree_end_node" }
%"class.std::__1::__tree_end_node" = type { ptr }
%"struct.std::__1::__compressed_pair_elem.23" = type { i64 }
%"struct.nanogui::Array.40" = type { [2 x float] }
%"struct.std::__1::aligned_storage<24>::type" = type { [32 x i8] }
%"class.std::__1::vector.58" = type { ptr, ptr, %"class.std::__1::__compressed_pair.59" }
%"class.std::__1::__compressed_pair.59" = type { %"struct.std::__1::__compressed_pair_elem.60" }
%"struct.std::__1::__compressed_pair_elem.60" = type { ptr }
%"class.tev::Image" = type <{ ptr, %"class.std::__1::__fs::filesystem::path", %"class.std::__1::chrono::time_point", %"class.std::__1::basic_string", %"class.std::__1::basic_string", %"class.std::__1::map.41", %"struct.tev::ImageData", %"class.std::__1::vector.66", %"class.std::__1::vector.73", [8 x i8], %"class.std::__1::function.80", i32, [12 x i8] }>
%"class.std::__1::__fs::filesystem::path" = type { %"class.std::__1::basic_string" }
%"class.std::__1::chrono::time_point" = type { %"class.std::__1::chrono::duration" }
%"class.std::__1::chrono::duration" = type { i128 }
%"class.std::__1::map.41" = type { %"class.std::__1::__tree.42" }
%"class.std::__1::__tree.42" = type { ptr, %"class.std::__1::__compressed_pair.43", %"class.std::__1::__compressed_pair.48" }
%"class.std::__1::__compressed_pair.43" = type { %"struct.std::__1::__compressed_pair_elem.17" }
%"class.std::__1::__compressed_pair.48" = type { %"struct.std::__1::__compressed_pair_elem.23" }
%"struct.tev::ImageData" = type { %"class.std::__1::vector.51", %"class.std::__1::vector.58", %"struct.nanogui::Matrix.65", i8, %"struct.tev::Box", %"struct.tev::Box", %"class.std::__1::basic_string" }
%"class.std::__1::vector.51" = type { ptr, ptr, %"class.std::__1::__compressed_pair.52" }
%"class.std::__1::__compressed_pair.52" = type { %"struct.std::__1::__compressed_pair_elem.53" }
%"struct.std::__1::__compressed_pair_elem.53" = type { ptr }
%"struct.nanogui::Matrix.65" = type { [4 x [4 x float]] }
%"class.std::__1::vector.66" = type { ptr, ptr, %"class.std::__1::__compressed_pair.67" }
%"class.std::__1::__compressed_pair.67" = type { %"struct.std::__1::__compressed_pair_elem.68" }
%"struct.std::__1::__compressed_pair_elem.68" = type { ptr }
%"class.std::__1::vector.73" = type { ptr, ptr, %"class.std::__1::__compressed_pair.74" }
%"class.std::__1::__compressed_pair.74" = type { %"struct.std::__1::__compressed_pair_elem.75" }
%"struct.std::__1::__compressed_pair_elem.75" = type { ptr }
%"class.std::__1::function.80" = type { %"class.std::__1::__function::__value_func.84" }
%"class.std::__1::__function::__value_func.84" = type { %"struct.std::__1::aligned_storage<24>::type", ptr, [8 x i8] }

; Function Attrs: mustprogress nounwind uwtable
define linkonce_odr dso_local noundef nonnull align 4 dereferenceable(4) ptr @_ZN7nanogui5ArrayIiLm2EEixEm(ptr noundef nonnull align 4 dereferenceable(8) %0, i64 noundef %1) #1 comdat align 2 {
  %3 = alloca ptr, align 8
  %4 = alloca i64, align 8
  store ptr %0, ptr %3, align 8
  store i64 %1, ptr %4, align 8
  %5 = load ptr, ptr %3, align 8
  %6 = getelementptr inbounds %"struct.nanogui::Array.2", ptr %5, i32 0, i32 0
  %7 = load i64, ptr %4, align 8
  %8 = getelementptr inbounds [2 x i32], ptr %6, i64 0, i64 %7
  ret ptr %8
}

; Function Attrs: mustprogress nounwind uwtable
define linkonce_odr dso_local void @_ZN7nanogui5ArrayIiLm2EEC2Ev(ptr noundef nonnull align 4 dereferenceable(8) %0) unnamed_addr #1 comdat align 2 {
  %2 = alloca ptr, align 8
  store ptr %0, ptr %2, align 8
  ret void
}

; Function Attrs: mustprogress nounwind uwtable
define linkonce_odr dso_local noundef nonnull align 4 dereferenceable(4) ptr @_ZNK7nanogui5ArrayIfLm2EEixEm(ptr noundef nonnull align 4 dereferenceable(8) %0, i64 noundef %1) #1 comdat align 2 {
  %3 = alloca ptr, align 8
  %4 = alloca i64, align 8
  store ptr %0, ptr %3, align 8
  store i64 %1, ptr %4, align 8
  %5 = load ptr, ptr %3, align 8
  %6 = getelementptr inbounds %"struct.nanogui::Array.40", ptr %5, i32 0, i32 0
  %7 = load i64, ptr %4, align 8
  %8 = getelementptr inbounds [2 x float], ptr %6, i64 0, i64 %7
  ret ptr %8
}

; Function Attrs: mustprogress nounwind uwtable
define linkonce_odr dso_local void @_ZN7nanogui6MatrixIfLm3EEC2Ev(ptr noundef nonnull align 4 dereferenceable(36) %0) unnamed_addr #1 comdat align 2 {
  %2 = alloca ptr, align 8
  store ptr %0, ptr %2, align 8
  ret void
}

; Function Attrs: mustprogress uwtable
define linkonce_odr dso_local void @_ZN7nanoguimlERKNS_6MatrixIfLm3EEES3_(ptr dead_on_unwind noalias writable sret(%"struct.nanogui::Matrix") align 4 %0, ptr noundef nonnull align 4 dereferenceable(36) %1, ptr noundef nonnull align 4 dereferenceable(36) %2) #4 comdat {
  %4 = alloca ptr, align 8
  %5 = alloca ptr, align 8
  %6 = alloca i64, align 8
  %7 = alloca i64, align 8
  %8 = alloca float, align 4
  %9 = alloca i64, align 8
  store ptr %1, ptr %4, align 8
  store ptr %2, ptr %5, align 8
  call void @_ZN7nanogui6MatrixIfLm3EEC2Ev(ptr noundef nonnull align 4 dereferenceable(36) %0)
  store i64 0, ptr %6, align 8
  br label %10

10:                                               ; preds = %52, %3
  %11 = load i64, ptr %6, align 8
  %12 = icmp ult i64 %11, 3
  br i1 %12, label %13, label %55

13:                                               ; preds = %10
  store i64 0, ptr %7, align 8
  br label %14

14:                                               ; preds = %48, %13
  %15 = load i64, ptr %7, align 8
  %16 = icmp ult i64 %15, 3
  br i1 %16, label %17, label %51

17:                                               ; preds = %14
  store float 0.000000e+00, ptr %8, align 4
  store i64 0, ptr %9, align 8
  br label %18

18:                                               ; preds = %38, %17
  %19 = load i64, ptr %9, align 8
  %20 = icmp ult i64 %19, 3
  br i1 %20, label %21, label %41

21:                                               ; preds = %18
  %22 = load ptr, ptr %4, align 8
  %23 = getelementptr inbounds %"struct.nanogui::Matrix", ptr %22, i32 0, i32 0
  %24 = load i64, ptr %9, align 8
  %25 = getelementptr inbounds [3 x [3 x float]], ptr %23, i64 0, i64 %24
  %26 = load i64, ptr %6, align 8
  %27 = getelementptr inbounds [3 x float], ptr %25, i64 0, i64 %26
  %28 = load float, ptr %27, align 4
  %29 = load ptr, ptr %5, align 8
  %30 = getelementptr inbounds %"struct.nanogui::Matrix", ptr %29, i32 0, i32 0
  %31 = load i64, ptr %7, align 8
  %32 = getelementptr inbounds [3 x [3 x float]], ptr %30, i64 0, i64 %31
  %33 = load i64, ptr %9, align 8
  %34 = getelementptr inbounds [3 x float], ptr %32, i64 0, i64 %33
  %35 = load float, ptr %34, align 4
  %36 = load float, ptr %8, align 4
  %37 = call float @llvm.fmuladd.f32(float %28, float %35, float %36)
  store float %37, ptr %8, align 4
  br label %38

38:                                               ; preds = %21
  %39 = load i64, ptr %9, align 8
  %40 = add i64 %39, 1
  store i64 %40, ptr %9, align 8
  br label %18, !llvm.loop !52

41:                                               ; preds = %18
  %42 = load float, ptr %8, align 4
  %43 = getelementptr inbounds %"struct.nanogui::Matrix", ptr %0, i32 0, i32 0
  %44 = load i64, ptr %7, align 8
  %45 = getelementptr inbounds [3 x [3 x float]], ptr %43, i64 0, i64 %44
  %46 = load i64, ptr %6, align 8
  %47 = getelementptr inbounds [3 x float], ptr %45, i64 0, i64 %46
  store float %42, ptr %47, align 4
  br label %48

48:                                               ; preds = %41
  %49 = load i64, ptr %7, align 8
  %50 = add i64 %49, 1
  store i64 %50, ptr %7, align 8
  br label %14, !llvm.loop !53

51:                                               ; preds = %14
  br label %52

52:                                               ; preds = %51
  %53 = load i64, ptr %6, align 8
  %54 = add i64 %53, 1
  store i64 %54, ptr %6, align 8
  br label %10, !llvm.loop !54

55:                                               ; preds = %10
  ret void
}

; Function Attrs: mustprogress uwtable
define linkonce_odr dso_local void @_ZN7nanogui6MatrixIfLm3EE9translateERKNS_5ArrayIfLm2EEE(ptr dead_on_unwind noalias writable sret(%"struct.nanogui::Matrix") align 4 %0, ptr noundef nonnull align 4 dereferenceable(8) %1) #4 comdat align 2 {
  %3 = alloca ptr, align 8
  %4 = alloca i64, align 8
  store ptr %1, ptr %3, align 8
  call void @_ZN7nanogui6MatrixIfLm3EEC2Ev(ptr noundef nonnull align 4 dereferenceable(36) %0)
  %5 = getelementptr inbounds %"struct.nanogui::Matrix", ptr %0, i32 0, i32 0
  %6 = getelementptr inbounds [3 x [3 x float]], ptr %5, i64 0, i64 0
  call void @llvm.memset.p0.i64(ptr align 4 %6, i8 0, i64 36, i1 false)
  store i64 0, ptr %4, align 8
  br label %7

7:                                                ; preds = %28, %2
  %8 = load i64, ptr %4, align 8
  %9 = icmp ult i64 %8, 3
  br i1 %9, label %10, label %31

10:                                               ; preds = %7
  %11 = getelementptr inbounds %"struct.nanogui::Matrix", ptr %0, i32 0, i32 0
  %12 = load i64, ptr %4, align 8
  %13 = getelementptr inbounds [3 x [3 x float]], ptr %11, i64 0, i64 %12
  %14 = load i64, ptr %4, align 8
  %15 = getelementptr inbounds [3 x float], ptr %13, i64 0, i64 %14
  store float 1.000000e+00, ptr %15, align 4
  %16 = load i64, ptr %4, align 8
  %17 = icmp ult i64 %16, 2
  br i1 %17, label %18, label %27

18:                                               ; preds = %10
  %19 = load ptr, ptr %3, align 8
  %20 = load i64, ptr %4, align 8
  %21 = call noundef nonnull align 4 dereferenceable(4) ptr @_ZNK7nanogui5ArrayIfLm2EEixEm(ptr noundef nonnull align 4 dereferenceable(8) %19, i64 noundef %20)
  %22 = load float, ptr %21, align 4
  %23 = getelementptr inbounds %"struct.nanogui::Matrix", ptr %0, i32 0, i32 0
  %24 = getelementptr inbounds [3 x [3 x float]], ptr %23, i64 0, i64 2
  %25 = load i64, ptr %4, align 8
  %26 = getelementptr inbounds [3 x float], ptr %24, i64 0, i64 %25
  store float %22, ptr %26, align 4
  br label %27

27:                                               ; preds = %18, %10
  br label %28

28:                                               ; preds = %27
  %29 = load i64, ptr %4, align 8
  %30 = add i64 %29, 1
  store i64 %30, ptr %4, align 8
  br label %7, !llvm.loop !55

31:                                               ; preds = %7
  ret void
}

; Function Attrs: mustprogress nounwind uwtable
define linkonce_odr dso_local void @_ZN7nanogui5ArrayIfLm2EEC2IiEERKNS0_IT_Lm2EEE(ptr noundef nonnull align 4 dereferenceable(8) %0, ptr noundef nonnull align 4 dereferenceable(8) %1) unnamed_addr #1 comdat align 2 {
  %3 = alloca ptr, align 8
  %4 = alloca ptr, align 8
  %5 = alloca i64, align 8
  store ptr %0, ptr %3, align 8
  store ptr %1, ptr %4, align 8
  %6 = load ptr, ptr %3, align 8
  store i64 0, ptr %5, align 8
  br label %7

7:                                                ; preds = %20, %2
  %8 = load i64, ptr %5, align 8
  %9 = icmp ult i64 %8, 2
  br i1 %9, label %10, label %23

10:                                               ; preds = %7
  %11 = load ptr, ptr %4, align 8
  %12 = getelementptr inbounds %"struct.nanogui::Array.2", ptr %11, i32 0, i32 0
  %13 = load i64, ptr %5, align 8
  %14 = getelementptr inbounds [2 x i32], ptr %12, i64 0, i64 %13
  %15 = load i32, ptr %14, align 4
  %16 = sitofp i32 %15 to float
  %17 = getelementptr inbounds %"struct.nanogui::Array.40", ptr %6, i32 0, i32 0
  %18 = load i64, ptr %5, align 8
  %19 = getelementptr inbounds [2 x float], ptr %17, i64 0, i64 %18
  store float %16, ptr %19, align 4
  br label %20

20:                                               ; preds = %10
  %21 = load i64, ptr %5, align 8
  %22 = add i64 %21, 1
  store i64 %22, ptr %5, align 8
  br label %7, !llvm.loop !8

23:                                               ; preds = %7
  ret void
}

; Function Attrs: mustprogress uwtable
define linkonce_odr dso_local i64 @_ZNK7nanogui5ArrayIiLm2EEngEv(ptr noundef nonnull align 4 dereferenceable(8) %0) #4 comdat align 2 {
  %2 = alloca %"struct.nanogui::Array.2", align 4
  %3 = alloca ptr, align 8
  %4 = alloca i64, align 8
  store ptr %0, ptr %3, align 8
  %5 = load ptr, ptr %3, align 8
  call void @_ZN7nanogui5ArrayIiLm2EEC2Ev(ptr noundef nonnull align 4 dereferenceable(8) %2)
  store i64 0, ptr %4, align 8
  br label %6

6:                                                ; preds = %17, %1
  %7 = load i64, ptr %4, align 8
  %8 = icmp ult i64 %7, 2
  br i1 %8, label %9, label %20

9:                                                ; preds = %6
  %10 = getelementptr inbounds %"struct.nanogui::Array.2", ptr %5, i32 0, i32 0
  %11 = load i64, ptr %4, align 8
  %12 = getelementptr inbounds [2 x i32], ptr %10, i64 0, i64 %11
  %13 = load i32, ptr %12, align 4
  %14 = sub nsw i32 0, %13
  %15 = load i64, ptr %4, align 8
  %16 = call noundef nonnull align 4 dereferenceable(4) ptr @_ZN7nanogui5ArrayIiLm2EEixEm(ptr noundef nonnull align 4 dereferenceable(8) %2, i64 noundef %15)
  store i32 %14, ptr %16, align 4
  br label %17

17:                                               ; preds = %9
  %18 = load i64, ptr %4, align 8
  %19 = add i64 %18, 1
  store i64 %19, ptr %4, align 8
  br label %6, !llvm.loop !67

20:                                               ; preds = %6
  %21 = getelementptr inbounds %"struct.nanogui::Array.2", ptr %2, i32 0, i32 0
  %22 = load i64, ptr %21, align 4
  ret i64 %22
}

; Function Attrs: mustprogress nounwind uwtable
define linkonce_odr dso_local noundef nonnull align 4 dereferenceable(16) ptr @_ZNK3tev5Image10dataWindowEv(ptr noundef nonnull align 16 dereferenceable(404) %0) #1 comdat align 2 {
  %2 = alloca ptr, align 8
  store ptr %0, ptr %2, align 8
  %3 = load ptr, ptr %2, align 8
  %4 = getelementptr inbounds %"class.tev::Image", ptr %3, i32 0, i32 6
  %5 = getelementptr inbounds %"struct.tev::ImageData", ptr %4, i32 0, i32 4
  ret ptr %5
}

; Function Attrs: mustprogress uwtable
define linkonce_odr dso_local void @_ZN7nanogui6MatrixIfLm3EE5scaleERKNS_5ArrayIfLm2EEE(ptr dead_on_unwind noalias writable sret(%"struct.nanogui::Matrix") align 4 %0, ptr noundef nonnull align 4 dereferenceable(8) %1) #4 comdat align 2 {
  %3 = alloca ptr, align 8
  %4 = alloca i64, align 8
  store ptr %1, ptr %3, align 8
  call void @_ZN7nanogui6MatrixIfLm3EEC2Ev(ptr noundef nonnull align 4 dereferenceable(36) %0)
  %5 = getelementptr inbounds %"struct.nanogui::Matrix", ptr %0, i32 0, i32 0
  %6 = getelementptr inbounds [3 x [3 x float]], ptr %5, i64 0, i64 0
  call void @llvm.memset.p0.i64(ptr align 4 %6, i8 0, i64 36, i1 false)
  store i64 0, ptr %4, align 8
  br label %7

7:                                                ; preds = %26, %2
  %8 = load i64, ptr %4, align 8
  %9 = icmp ult i64 %8, 3
  br i1 %9, label %10, label %29

10:                                               ; preds = %7
  %11 = load i64, ptr %4, align 8
  %12 = icmp ult i64 %11, 2
  br i1 %12, label %13, label %18

13:                                               ; preds = %10
  %14 = load ptr, ptr %3, align 8
  %15 = load i64, ptr %4, align 8
  %16 = call noundef nonnull align 4 dereferenceable(4) ptr @_ZNK7nanogui5ArrayIfLm2EEixEm(ptr noundef nonnull align 4 dereferenceable(8) %14, i64 noundef %15)
  %17 = load float, ptr %16, align 4
  br label %19

18:                                               ; preds = %10
  br label %19

19:                                               ; preds = %18, %13
  %20 = phi float [ %17, %13 ], [ 1.000000e+00, %18 ]
  %21 = getelementptr inbounds %"struct.nanogui::Matrix", ptr %0, i32 0, i32 0
  %22 = load i64, ptr %4, align 8
  %23 = getelementptr inbounds [3 x [3 x float]], ptr %21, i64 0, i64 %22
  %24 = load i64, ptr %4, align 8
  %25 = getelementptr inbounds [3 x float], ptr %23, i64 0, i64 %24
  store float %20, ptr %25, align 4
  br label %26

26:                                               ; preds = %19
  %27 = load i64, ptr %4, align 8
  %28 = add i64 %27, 1
  store i64 %28, ptr %4, align 8
  br label %7, !llvm.loop !57

29:                                               ; preds = %7
  ret void
}

; Function Attrs: mustprogress nounwind uwtable
define linkonce_odr dso_local void @_ZN7nanogui5ArrayIfLm2EEC2Ef(ptr noundef nonnull align 4 dereferenceable(8) %0, float noundef %1) unnamed_addr #1 comdat align 2 {
  %3 = alloca ptr, align 8
  %4 = alloca float, align 4
  %5 = alloca i64, align 8
  store ptr %0, ptr %3, align 8
  store float %1, ptr %4, align 4
  %6 = load ptr, ptr %3, align 8
  store i64 0, ptr %5, align 8
  br label %7

7:                                                ; preds = %15, %2
  %8 = load i64, ptr %5, align 8
  %9 = icmp ult i64 %8, 2
  br i1 %9, label %10, label %18

10:                                               ; preds = %7
  %11 = load float, ptr %4, align 4
  %12 = getelementptr inbounds %"struct.nanogui::Array.40", ptr %6, i32 0, i32 0
  %13 = load i64, ptr %5, align 8
  %14 = getelementptr inbounds [2 x float], ptr %12, i64 0, i64 %13
  store float %11, ptr %14, align 4
  br label %15

15:                                               ; preds = %10
  %16 = load i64, ptr %5, align 8
  %17 = add i64 %16, 1
  store i64 %17, ptr %5, align 8
  br label %7, !llvm.loop !11

18:                                               ; preds = %7
  ret void
}

; Function Attrs: mustprogress uwtable
define dso_local void @_ZN3tev11ImageCanvas22displayWindowToNanoguiEPKNS_5ImageE(ptr dead_on_unwind noalias writable sret(%"struct.nanogui::Matrix") align 4 %0, ptr noundef nonnull align 8 dereferenceable(376) %1, ptr noundef %2) #4 align 2 {
  %4 = alloca ptr, align 8
  %5 = alloca ptr, align 8
  %6 = alloca %"struct.nanogui::Array.40", align 4
  %7 = alloca %"struct.nanogui::Matrix", align 4
  %8 = alloca %"struct.nanogui::Matrix", align 4
  %9 = alloca %"struct.nanogui::Array.40", align 4
  %10 = alloca %"struct.nanogui::Array.2", align 4
  store ptr %1, ptr %4, align 8
  store ptr %2, ptr %5, align 8
  %11 = load ptr, ptr %4, align 8
  %12 = load ptr, ptr %5, align 8
  %13 = icmp ne ptr %12, null
  br i1 %13, label %15, label %14

14:                                               ; preds = %3
  call void @_ZN7nanogui5ArrayIfLm2EEC2Ef(ptr noundef nonnull align 4 dereferenceable(8) %6, float noundef 1.000000e+00)
  call void @_ZN7nanogui6MatrixIfLm3EE5scaleERKNS_5ArrayIfLm2EEE(ptr dead_on_unwind writable sret(%"struct.nanogui::Matrix") align 4 %0, ptr noundef nonnull align 4 dereferenceable(8) %6)
  br label %22

15:                                               ; preds = %3
  %16 = load ptr, ptr %5, align 8
  call void @_ZN3tev11ImageCanvas16textureToNanoguiEPKNS_5ImageE(ptr dead_on_unwind writable sret(%"struct.nanogui::Matrix") align 4 %7, ptr noundef nonnull align 8 dereferenceable(376) %11, ptr noundef %16)
  %17 = load ptr, ptr %5, align 8
  %18 = call noundef nonnull align 4 dereferenceable(16) ptr @_ZNK3tev5Image10dataWindowEv(ptr noundef nonnull align 16 dereferenceable(404) %17)
  %19 = getelementptr inbounds %"struct.tev::Box", ptr %18, i32 0, i32 0
  %20 = call i64 @_ZNK7nanogui5ArrayIiLm2EEngEv(ptr noundef nonnull align 4 dereferenceable(8) %19)
  %21 = getelementptr inbounds %"struct.nanogui::Array.2", ptr %10, i32 0, i32 0
  store i64 %20, ptr %21, align 4
  call void @_ZN7nanogui5ArrayIfLm2EEC2IiEERKNS0_IT_Lm2EEE(ptr noundef nonnull align 4 dereferenceable(8) %9, ptr noundef nonnull align 4 dereferenceable(8) %10)
  call void @_ZN7nanogui6MatrixIfLm3EE9translateERKNS_5ArrayIfLm2EEE(ptr dead_on_unwind writable sret(%"struct.nanogui::Matrix") align 4 %8, ptr noundef nonnull align 4 dereferenceable(8) %9)
  call void @_ZN7nanoguimlERKNS_6MatrixIfLm3EEES3_(ptr dead_on_unwind writable sret(%"struct.nanogui::Matrix") align 4 %0, ptr noundef nonnull align 4 dereferenceable(36) %7, ptr noundef nonnull align 4 dereferenceable(36) %8)
  br label %22

22:                                               ; preds = %15, %14
  ret void
}