; Function Attrs: mustprogress uwtable
define dso_local void @_ZN3tev11ImageCanvas22displayWindowToNanoguiEPKNS_5ImageE(ptr dead_on_unwind noalias nocapture writable writeonly sret(%"struct.nanogui::Matrix") align 4 %0, ptr nocapture noundef nonnull readonly align 8 dereferenceable(376) %1, ptr noundef %2) local_unnamed_addr #3 align 2 {
  %4 = alloca %"struct.nanogui::Array.40", align 8
  %5 = alloca %"struct.nanogui::Matrix", align 4
  %6 = alloca %"struct.nanogui::Matrix", align 4
  %.not = icmp eq ptr %2, null
  br i1 %.not, label %_ZN7nanogui5ArrayIfLm2EEC2Ef.exit.critedge, label %_ZNK7nanogui5ArrayIiLm2EEngEv.exit.critedge

_ZN7nanogui5ArrayIfLm2EEC2Ef.exit.critedge:       ; preds = %3
  store <2 x float> <float 1.000000e+00, float 1.000000e+00>, ptr %4, align 8
  tail call void @llvm.experimental.noalias.scope.decl(metadata !141)
  tail call void @llvm.memset.p0.i64(ptr noundef nonnull align 4 dereferenceable(36) %0, i8 0, i64 32, i1 false), !alias.scope !141
  br label %7

7:                                                ; preds = %_ZN7nanogui5ArrayIfLm2EEC2Ef.exit.critedge, %7
  %.06.i13 = phi i64 [ 0, %_ZN7nanogui5ArrayIfLm2EEC2Ef.exit.critedge ], [ %11, %7 ]
  %8 = getelementptr inbounds [2 x float], ptr %4, i64 0, i64 %.06.i13
  %9 = load float, ptr %8, align 4, !noalias !141
  %10 = getelementptr inbounds [3 x [3 x float]], ptr %0, i64 0, i64 %.06.i13, i64 %.06.i13
  store float %9, ptr %10, align 4, !alias.scope !141
  %11 = add nuw nsw i64 %.06.i13, 1
  %.not.i = icmp eq i64 %11, 2
  br i1 %.not.i, label %_ZN7nanogui6MatrixIfLm3EE5scaleERKNS_5ArrayIfLm2EEE.exit, label %7

_ZN7nanogui6MatrixIfLm3EE5scaleERKNS_5ArrayIfLm2EEE.exit: ; preds = %7
  %12 = getelementptr inbounds i8, ptr %0, i64 32
  store float 1.000000e+00, ptr %12, align 4, !alias.scope !141
  br label %_ZN7nanoguimlERKNS_6MatrixIfLm3EEES3_.exit

_ZNK7nanogui5ArrayIiLm2EEngEv.exit.critedge:      ; preds = %3
  call void @_ZN3tev11ImageCanvas16textureToNanoguiEPKNS_5ImageE(ptr dead_on_unwind nonnull writable sret(%"struct.nanogui::Matrix") align 4 %5, ptr noundef nonnull align 8 dereferenceable(376) %1, ptr noundef nonnull %2)
  %13 = getelementptr inbounds i8, ptr %2, i64 236
  %14 = getelementptr inbounds i8, ptr %6, i64 4
  call void @llvm.memset.p0.i64(ptr noundef nonnull align 4 dereferenceable(36) %14, i8 0, i64 32, i1 false), !alias.scope !144
  %15 = getelementptr inbounds i8, ptr %6, i64 24
  store float 1.000000e+00, ptr %6, align 4, !alias.scope !144
  %16 = load <2 x i32>, ptr %13, align 4
  %17 = sub nsw <2 x i32> zeroinitializer, %16
  %18 = sitofp <2 x i32> %17 to <2 x float>
  store <2 x float> %18, ptr %15, align 4
  br label %19

19:                                               ; preds = %_ZNK7nanogui5ArrayIiLm2EEngEv.exit.critedge, %19
  %.07.i12 = phi i64 [ 0, %_ZNK7nanogui5ArrayIiLm2EEngEv.exit.critedge ], [ %20, %19 ]
  %20 = add nuw nsw i64 %.07.i12, 1
  %21 = getelementptr inbounds [3 x [3 x float]], ptr %6, i64 0, i64 %20, i64 %20
  store float 1.000000e+00, ptr %21, align 4, !alias.scope !144
  %.not.i5 = icmp eq i64 %20, 2
  br i1 %.not.i5, label %_ZN7nanogui6MatrixIfLm3EE9translateERKNS_5ArrayIfLm2EEE.exit, label %19

_ZN7nanogui6MatrixIfLm3EE9translateERKNS_5ArrayIfLm2EEE.exit: ; preds = %19
  tail call void @llvm.experimental.noalias.scope.decl(metadata !147)
  br label %.preheader18.i

.preheader18.i:                                   ; preds = %32, %_ZN7nanogui6MatrixIfLm3EE9translateERKNS_5ArrayIfLm2EEE.exit
  %.01722.i = phi i64 [ 0, %_ZN7nanogui6MatrixIfLm3EE9translateERKNS_5ArrayIfLm2EEE.exit ], [ %33, %32 ]
  br label %.preheader.i

.preheader.i:                                     ; preds = %29, %.preheader18.i
  %.01621.i = phi i64 [ 0, %.preheader18.i ], [ %31, %29 ]
  br label %22

22:                                               ; preds = %22, %.preheader.i
  %.020.i = phi i64 [ 0, %.preheader.i ], [ %28, %22 ]
  %.01519.i = phi float [ 0.000000e+00, %.preheader.i ], [ %27, %22 ]
  %23 = getelementptr inbounds [3 x [3 x float]], ptr %5, i64 0, i64 %.020.i, i64 %.01722.i
  %24 = load float, ptr %23, align 4, !noalias !147
  %25 = getelementptr inbounds [3 x [3 x float]], ptr %6, i64 0, i64 %.01621.i, i64 %.020.i
  %26 = load float, ptr %25, align 4, !noalias !147
  %27 = tail call float @llvm.fmuladd.f32(float %24, float %26, float %.01519.i)
  %28 = add nuw nsw i64 %.020.i, 1
  %exitcond.not.i = icmp eq i64 %28, 3
  br i1 %exitcond.not.i, label %29, label %22, !llvm.loop !20

29:                                               ; preds = %22
  %30 = getelementptr inbounds [3 x [3 x float]], ptr %0, i64 0, i64 %.01621.i, i64 %.01722.i
  store float %27, ptr %30, align 4, !alias.scope !147
  %31 = add nuw nsw i64 %.01621.i, 1
  %exitcond23.not.i = icmp eq i64 %31, 3
  br i1 %exitcond23.not.i, label %32, label %.preheader.i, !llvm.loop !21

32:                                               ; preds = %29
  %33 = add nuw nsw i64 %.01722.i, 1
  %exitcond24.not.i = icmp eq i64 %33, 3
  br i1 %exitcond24.not.i, label %_ZN7nanoguimlERKNS_6MatrixIfLm3EEES3_.exit, label %.preheader18.i, !llvm.loop !22

_ZN7nanoguimlERKNS_6MatrixIfLm3EEES3_.exit:       ; preds = %32, %_ZN7nanogui6MatrixIfLm3EE5scaleERKNS_5ArrayIfLm2EEE.exit
  ret void
}